; ModuleID = '34/120.c'
source_filename = "34/120.c"
target datalayout = "e-m:e-p270:32:32-p271:32:32-p272:64:64-i64:64-f80:128-n8:16:32:64-S128"
target triple = "x86_64-pc-linux-gnu"

@.str = private unnamed_addr constant [3 x i8] c"%d\00", align 1
@.str.1 = private unnamed_addr constant [10 x i8] c"%d*3+1=%d\00", align 1
@.str.2 = private unnamed_addr constant [8 x i8] c"%d/2=%d\00", align 1
@.str.3 = private unnamed_addr constant [2 x i8] c"\0A\00", align 1
@.str.4 = private unnamed_addr constant [4 x i8] c"End\00", align 1

; Function Attrs: noinline nounwind uwtable
define dso_local void @main() #0 {
  %1 = alloca i32, align 4
  %2 = call i32 (i8*, ...) @__isoc99_scanf(i8* getelementptr inbounds ([3 x i8], [3 x i8]* @.str, i64 0, i64 0), i32* %1)
  br label %3

3:                                                ; preds = %27, %0
  %4 = load i32, i32* %1, align 4
  %5 = icmp eq i32 %4, 1
  br i1 %5, label %6, label %7

6:                                                ; preds = %3
  br label %29

7:                                                ; preds = %3
  %8 = load i32, i32* %1, align 4
  %9 = srem i32 %8, 2
  %10 = icmp eq i32 %9, 1
  br i1 %10, label %11, label %20

11:                                               ; preds = %7
  %12 = load i32, i32* %1, align 4
  %13 = load i32, i32* %1, align 4
  %14 = mul nsw i32 %13, 3
  %15 = add nsw i32 %14, 1
  %16 = call i32 (i8*, ...) @printf(i8* getelementptr inbounds ([10 x i8], [10 x i8]* @.str.1, i64 0, i64 0), i32 %12, i32 %15)
  %17 = load i32, i32* %1, align 4
  %18 = mul nsw i32 %17, 3
  %19 = add nsw i32 %18, 1
  store i32 %19, i32* %1, align 4
  br label %27

20:                                               ; preds = %7
  %21 = load i32, i32* %1, align 4
  %22 = load i32, i32* %1, align 4
  %23 = sdiv i32 %22, 2
  %24 = call i32 (i8*, ...) @printf(i8* getelementptr inbounds ([8 x i8], [8 x i8]* @.str.2, i64 0, i64 0), i32 %21, i32 %23)
  %25 = load i32, i32* %1, align 4
  %26 = sdiv i32 %25, 2
  store i32 %26, i32* %1, align 4
  br label %27

27:                                               ; preds = %20, %11
  %28 = call i32 (i8*, ...) @printf(i8* getelementptr inbounds ([2 x i8], [2 x i8]* @.str.3, i64 0, i64 0))
  br label %3

29:                                               ; preds = %6
  %30 = call i32 (i8*, ...) @printf(i8* getelementptr inbounds ([4 x i8], [4 x i8]* @.str.4, i64 0, i64 0))
  ret void
}

declare dso_local i32 @__isoc99_scanf(i8*, ...) #1

declare dso_local i32 @printf(i8*, ...) #1


!llvm.module.flags = !{!0}
!llvm.ident = !{!1}

!0 = !{i32 1, !"wchar_size", i32 4}
!1 = !{!"clang version 10.0.0-4ubuntu1 "}
